target datalayout = "e-m:e-p270:32:32-p271:32:32-p272:64:64-i64:64-i128:128-f80:128-n8:16:32:64-S128"
target triple = "x86_64-pc-linux-gnu"

%struct.PrefetchBufferResult = type { i32, i8 }
%struct.buftag = type { i32, i32, i32, i32, i32 }
%struct.SMgrRelationData = type { %struct.RelFileLocatorBackend, i32, [4 x i32], i32, [4 x i32], [4 x ptr], i32, %struct.dlist_node }
%struct.RelFileLocatorBackend = type { %struct.RelFileLocator, i32 }
%struct.RelFileLocator = type { i32, i32, i32 }
%struct.dlist_node = type { ptr, ptr }
%struct.LocalBufferLookupEnt = type { %struct.buftag, i32 }

@LocalBufHash = internal global ptr null, align 8
@io_direct_flags = external global i32, align 4

; Function Attrs: inlinehint nounwind uwtable
define internal void @BufTagSetRelForkDetails(ptr noundef %0, i32 noundef %1, i32 noundef %2) #3 {
  %4 = alloca ptr, align 8
  %5 = alloca i32, align 4
  %6 = alloca i32, align 4
  store ptr %0, ptr %4, align 8
  store i32 %1, ptr %5, align 4
  store i32 %2, ptr %6, align 4
  %7 = load i32, ptr %5, align 4
  %8 = load ptr, ptr %4, align 8
  %9 = getelementptr inbounds nuw %struct.buftag, ptr %8, i32 0, i32 2
  store i32 %7, ptr %9, align 4
  %10 = load i32, ptr %6, align 4
  %11 = load ptr, ptr %4, align 8
  %12 = getelementptr inbounds nuw %struct.buftag, ptr %11, i32 0, i32 3
  store i32 %10, ptr %12, align 4
  ret void
}

; Function Attrs: inlinehint nounwind uwtable
define internal void @InitBufferTag(ptr noundef %0, ptr noundef %1, i32 noundef %2, i32 noundef %3) #3 {
  %5 = alloca ptr, align 8
  %6 = alloca ptr, align 8
  %7 = alloca i32, align 4
  %8 = alloca i32, align 4
  store ptr %0, ptr %5, align 8
  store ptr %1, ptr %6, align 8
  store i32 %2, ptr %7, align 4
  store i32 %3, ptr %8, align 4
  %9 = load ptr, ptr %6, align 8
  %10 = getelementptr inbounds nuw %struct.RelFileLocator, ptr %9, i32 0, i32 0
  %11 = load i32, ptr %10, align 4
  %12 = load ptr, ptr %5, align 8
  %13 = getelementptr inbounds nuw %struct.buftag, ptr %12, i32 0, i32 0
  store i32 %11, ptr %13, align 4
  %14 = load ptr, ptr %6, align 8
  %15 = getelementptr inbounds nuw %struct.RelFileLocator, ptr %14, i32 0, i32 1
  %16 = load i32, ptr %15, align 4
  %17 = load ptr, ptr %5, align 8
  %18 = getelementptr inbounds nuw %struct.buftag, ptr %17, i32 0, i32 1
  store i32 %16, ptr %18, align 4
  %19 = load ptr, ptr %5, align 8
  %20 = load ptr, ptr %6, align 8
  %21 = getelementptr inbounds nuw %struct.RelFileLocator, ptr %20, i32 0, i32 2
  %22 = load i32, ptr %21, align 4
  %23 = load i32, ptr %7, align 4
  call void @BufTagSetRelForkDetails(ptr noundef %19, i32 noundef %22, i32 noundef %23)
  %24 = load i32, ptr %8, align 4
  %25 = load ptr, ptr %5, align 8
  %26 = getelementptr inbounds nuw %struct.buftag, ptr %25, i32 0, i32 4
  store i32 %24, ptr %26, align 4
  ret void
}

; Function Attrs: nounwind uwtable
define dso_local i64 @PrefetchLocalBuffer(ptr noundef %0, i32 noundef %1, i32 noundef %2) #0 {
  %4 = alloca %struct.PrefetchBufferResult, align 4
  %5 = alloca ptr, align 8
  %6 = alloca i32, align 4
  %7 = alloca i32, align 4
  %8 = alloca %struct.buftag, align 4
  %9 = alloca ptr, align 8
  store ptr %0, ptr %5, align 8
  store i32 %1, ptr %6, align 4
  store i32 %2, ptr %7, align 4
  call void @llvm.memset.p0.i64(ptr align 4 %4, i8 0, i64 8, i1 false)
  call void @llvm.lifetime.start.p0(i64 20, ptr %8) #9
  call void @llvm.lifetime.start.p0(i64 8, ptr %9) #9
  %10 = load ptr, ptr %5, align 8
  %11 = getelementptr inbounds nuw %struct.SMgrRelationData, ptr %10, i32 0, i32 0
  %12 = getelementptr inbounds nuw %struct.RelFileLocatorBackend, ptr %11, i32 0, i32 0
  %13 = load i32, ptr %6, align 4
  %14 = load i32, ptr %7, align 4
  call void @InitBufferTag(ptr noundef %8, ptr noundef %12, i32 noundef %13, i32 noundef %14)
  %15 = load ptr, ptr @LocalBufHash, align 8
  %16 = icmp eq ptr %15, null
  br i1 %16, label %17, label %18

17:                                               ; preds = %3
  call void @InitLocalBuffers()
  br label %18

18:                                               ; preds = %17, %3
  %19 = load ptr, ptr @LocalBufHash, align 8
  %20 = call ptr @hash_search(ptr noundef %19, ptr noundef %8, i32 noundef 0, ptr noundef null)
  store ptr %20, ptr %9, align 8
  %21 = load ptr, ptr %9, align 8
  %22 = icmp ne ptr %21, null
  br i1 %22, label %23, label %30

23:                                               ; preds = %18
  %24 = load ptr, ptr %9, align 8
  %25 = getelementptr inbounds nuw %struct.LocalBufferLookupEnt, ptr %24, i32 0, i32 1
  %26 = load i32, ptr %25, align 4
  %27 = sub i32 0, %26
  %28 = sub i32 %27, 1
  %29 = getelementptr inbounds nuw %struct.PrefetchBufferResult, ptr %4, i32 0, i32 0
  store i32 %28, ptr %29, align 4
  br label %42

30:                                               ; preds = %18
  %31 = load i32, ptr @io_direct_flags, align 4
  %32 = and i32 %31, 1
  %33 = icmp eq i32 %32, 0
  br i1 %33, label %34, label %41

34:                                               ; preds = %30
  %35 = load ptr, ptr %5, align 8
  %36 = load i32, ptr %6, align 4
  %37 = load i32, ptr %7, align 4
  %38 = call zeroext i1 @smgrprefetch(ptr noundef %35, i32 noundef %36, i32 noundef %37, i32 noundef 1)
  br i1 %38, label %39, label %41

39:                                               ; preds = %34
  %40 = getelementptr inbounds nuw %struct.PrefetchBufferResult, ptr %4, i32 0, i32 1
  store i8 1, ptr %40, align 4
  br label %41

41:                                               ; preds = %39, %34, %30
  br label %42

42:                                               ; preds = %41, %23
  call void @llvm.lifetime.end.p0(i64 8, ptr %9) #9
  call void @llvm.lifetime.end.p0(i64 20, ptr %8) #9
  %43 = load i64, ptr %4, align 4
  ret i64 %43
}