; Function Attrs: nounwind uwtable
define dso_local range(i64 0, 4294967297) i64 @PrefetchLocalBuffer(ptr noundef %0, i32 noundef %1, i32 noundef %2) local_unnamed_addr #0 {
  %4 = alloca %struct.buftag, align 4
  call void @llvm.lifetime.start.p0(i64 20, ptr nonnull %4) #14
  %5 = load i32, ptr %0, align 4
  store i32 %5, ptr %4, align 4
  %6 = getelementptr inbounds nuw i8, ptr %0, i64 4
  %7 = load i32, ptr %6, align 4
  %8 = getelementptr inbounds nuw i8, ptr %4, i64 4
  store i32 %7, ptr %8, align 4
  %9 = getelementptr inbounds nuw i8, ptr %0, i64 8
  %10 = load i32, ptr %9, align 4
  %11 = getelementptr inbounds nuw i8, ptr %4, i64 8
  store i32 %10, ptr %11, align 4
  %12 = getelementptr inbounds nuw i8, ptr %4, i64 12
  store i32 %1, ptr %12, align 4
  %13 = getelementptr inbounds nuw i8, ptr %4, i64 16
  store i32 %2, ptr %13, align 4
  %14 = load ptr, ptr @LocalBufHash, align 8
  %15 = icmp eq ptr %14, null
  br i1 %15, label %16, label %17

16:                                               ; preds = %3
  tail call fastcc void @InitLocalBuffers()
  %.pre = load ptr, ptr @LocalBufHash, align 8
  br label %17

17:                                               ; preds = %16, %3
  %18 = phi ptr [ %.pre, %16 ], [ %14, %3 ]
  %19 = call ptr @hash_search(ptr noundef %18, ptr noundef nonnull %4, i32 noundef 0, ptr noundef null) #14
  %.not = icmp eq ptr %19, null
  br i1 %.not, label %25, label %20

20:                                               ; preds = %17
  %21 = getelementptr inbounds nuw i8, ptr %19, i64 20
  %22 = load i32, ptr %21, align 4
  %23 = xor i32 %22, -1
  %24 = zext i32 %23 to i64
  br label %31

25:                                               ; preds = %17
  %26 = load i32, ptr @io_direct_flags, align 4
  %27 = and i32 %26, 1
  %28 = icmp eq i32 %27, 0
  br i1 %28, label %29, label %31

29:                                               ; preds = %25
  %30 = call zeroext i1 @smgrprefetch(ptr noundef nonnull %0, i32 noundef %1, i32 noundef %2, i32 noundef 1) #14
  %spec.select = select i1 %30, i64 4294967296, i64 0
  br label %31

31:                                               ; preds = %29, %25, %20
  %.sroa.0.0.insert.insert = phi i64 [ %24, %20 ], [ 0, %25 ], [ %spec.select, %29 ]
  call void @llvm.lifetime.end.p0(i64 20, ptr nonnull %4) #14
  ret i64 %.sroa.0.0.insert.insert
}